; Function Attrs: mustprogress nounwind uwtable
define hidden noundef ptr @_ZNK9immP0Oper5cloneEv(ptr nocapture noundef nonnull readonly align 8 dereferenceable(16) %0) unnamed_addr #0 align 2 {
  %2 = tail call align 8 ptr @llvm.threadlocal.address.p0(ptr align 8 @_ZN6Thread12_thr_currentE)
  %3 = load ptr, ptr %2, align 8
  %4 = getelementptr inbounds i8, ptr %3, i64 1808
  %5 = load ptr, ptr %4, align 8
  %6 = getelementptr inbounds i8, ptr %5, i64 128
  %7 = load ptr, ptr %6, align 8
  %8 = getelementptr inbounds i8, ptr %7, i64 728
  %9 = load ptr, ptr %8, align 8
  %10 = getelementptr inbounds i8, ptr %9, i64 40
  %11 = load ptr, ptr %10, align 8
  %12 = getelementptr inbounds i8, ptr %9, i64 32
  %13 = load ptr, ptr %12, align 8
  %14 = ptrtoint ptr %11 to i64
  %15 = ptrtoint ptr %13 to i64
  %16 = sub i64 %14, %15
  %.not.i.i.i = icmp ult i64 %16, 16
  br i1 %.not.i.i.i, label %19, label %17

17:                                               ; preds = %1
  %18 = getelementptr inbounds i8, ptr %13, i64 16
  store ptr %18, ptr %12, align 8
  br label %_ZN8MachOpernwEm.exit

19:                                               ; preds = %1
  %20 = tail call noundef ptr @_ZN5Arena4growEmN17AllocFailStrategy13AllocFailEnumE(ptr noundef nonnull align 8 dereferenceable(48) %9, i64 noundef 16, i32 noundef 0) #4
  br label %_ZN8MachOpernwEm.exit

_ZN8MachOpernwEm.exit:                            ; preds = %17, %19
  %.0.i.i.i = phi ptr [ %13, %17 ], [ %20, %19 ]
  %21 = icmp eq ptr %.0.i.i.i, null
  br i1 %21, label %26, label %22

22:                                               ; preds = %_ZN8MachOpernwEm.exit
  %23 = getelementptr inbounds i8, ptr %0, i64 8
  %24 = load ptr, ptr %23, align 8
  store ptr getelementptr inbounds inrange(-16, 232) (i8, ptr @_ZTV9immP0Oper, i64 16), ptr %.0.i.i.i, align 8
  %25 = getelementptr inbounds i8, ptr %.0.i.i.i, i64 8
  store ptr %24, ptr %25, align 8
  br label %26

26:                                               ; preds = %22, %_ZN8MachOpernwEm.exit
  ret ptr %.0.i.i.i
}